; Function Attrs: nounwind uwtable
define noalias noundef ptr @Ioa_WriteAigerLiterals(ptr noundef readonly captures(none) %0) local_unnamed_addr #2 {
  %2 = getelementptr i8, ptr %0, i64 140
  %.val = load i32, ptr %2, align 4, !tbaa !16
  %3 = tail call noalias dereferenceable_or_null(16) ptr @malloc(i64 noundef 16) #13
  %4 = add i32 %.val, -1
  %or.cond.i = icmp ult i32 %4, 15
  %spec.store.select.i = select i1 %or.cond.i, i32 16, i32 %.val
  %5 = getelementptr inbounds nuw i8, ptr %3, i64 4
  store i32 0, ptr %5, align 4, !tbaa !17
  store i32 %spec.store.select.i, ptr %3, align 8, !tbaa !20
  %.not.i = icmp eq i32 %spec.store.select.i, 0
  br i1 %.not.i, label %Vec_IntAlloc.exit, label %6

6:                                                ; preds = %1
  %7 = sext i32 %spec.store.select.i to i64
  %8 = shl nsw i64 %7, 2
  %9 = tail call noalias ptr @malloc(i64 noundef %8) #13
  br label %Vec_IntAlloc.exit

Vec_IntAlloc.exit:                                ; preds = %1, %6
  %10 = phi ptr [ %9, %6 ], [ null, %1 ]
  %11 = getelementptr inbounds nuw i8, ptr %3, i64 8
  store ptr %10, ptr %11, align 8, !tbaa !21
  %12 = getelementptr i8, ptr %0, i64 104
  %.val28 = load i32, ptr %12, align 8, !tbaa !22
  %13 = sub nsw i32 %.val, %.val28
  %14 = getelementptr inbounds nuw i8, ptr %0, i64 24
  %15 = load ptr, ptr %14, align 8, !tbaa !34
  %16 = getelementptr i8, ptr %15, i64 4
  %.val3048 = load i32, ptr %16, align 4, !tbaa !35
  %17 = icmp slt i32 %13, %.val3048
  br i1 %17, label %.lr.ph.preheader, label %.critedge.preheader

.lr.ph.preheader:                                 ; preds = %Vec_IntAlloc.exit
  %18 = sext i32 %13 to i64
  br label %.lr.ph

.critedge.preheader.loopexit:                     ; preds = %Vec_IntPush.exit
  %.val2750.pre = load i32, ptr %2, align 4, !tbaa !16
  %.val2951.pre = load i32, ptr %12, align 8, !tbaa !22
  br label %.critedge.preheader

.critedge.preheader:                              ; preds = %.critedge.preheader.loopexit, %Vec_IntAlloc.exit
  %.pre.i4364 = phi ptr [ %.pre.i59, %.critedge.preheader.loopexit ], [ %10, %Vec_IntAlloc.exit ]
  %.val2951 = phi i32 [ %.val2951.pre, %.critedge.preheader.loopexit ], [ %.val28, %Vec_IntAlloc.exit ]
  %.val2750 = phi i32 [ %.val2750.pre, %.critedge.preheader.loopexit ], [ %.val, %Vec_IntAlloc.exit ]
  %19 = icmp sgt i32 %.val2750, %.val2951
  br i1 %19, label %.lr.ph53, label %.critedge2

.lr.ph:                                           ; preds = %.lr.ph.preheader, %Vec_IntPush.exit
  %20 = phi ptr [ %10, %.lr.ph.preheader ], [ %.pre.i59, %Vec_IntPush.exit ]
  %indvars.iv = phi i64 [ %18, %.lr.ph.preheader ], [ %indvars.iv.next, %Vec_IntPush.exit ]
  %21 = phi ptr [ %15, %.lr.ph.preheader ], [ %58, %Vec_IntPush.exit ]
  %22 = getelementptr i8, ptr %21, i64 8
  %.val31 = load ptr, ptr %22, align 8, !tbaa !37
  %23 = getelementptr inbounds ptr, ptr %.val31, i64 %indvars.iv
  %24 = load ptr, ptr %23, align 8, !tbaa !38
  %25 = getelementptr i8, ptr %24, i64 8
  %.val33 = load ptr, ptr %25, align 8, !tbaa !39
  %26 = ptrtoint ptr %.val33 to i64
  %27 = and i64 %26, -2
  %28 = inttoptr i64 %27 to ptr
  %29 = getelementptr i8, ptr %28, i64 40
  %.val35 = load i32, ptr %29, align 8, !tbaa !3
  %30 = trunc i64 %26 to i32
  %31 = and i32 %30, 1
  %32 = icmp eq i32 %.val35, 0
  %33 = zext i1 %32 to i32
  %34 = xor i32 %31, %33
  %35 = shl i32 %.val35, 1
  %36 = or disjoint i32 %34, %35
  %37 = load i32, ptr %5, align 4, !tbaa !17
  %38 = load i32, ptr %3, align 8, !tbaa !20
  %39 = icmp eq i32 %37, %38
  br i1 %39, label %40, label %Vec_IntPush.exit

40:                                               ; preds = %.lr.ph
  %41 = icmp slt i32 %37, 16
  br i1 %41, label %42, label %47

42:                                               ; preds = %40
  %.not9.i.i = icmp eq ptr %20, null
  br i1 %.not9.i.i, label %45, label %43

43:                                               ; preds = %42
  %44 = tail call dereferenceable_or_null(64) ptr @realloc(ptr noundef nonnull %20, i64 noundef 64) #12
  br label %Vec_IntPush.exit.sink.split

45:                                               ; preds = %42
  %46 = tail call noalias dereferenceable_or_null(64) ptr @malloc(i64 noundef 64) #13
  br label %Vec_IntPush.exit.sink.split

47:                                               ; preds = %40
  %48 = shl nuw nsw i32 %37, 1
  %.not9.i9.i = icmp eq ptr %20, null
  %49 = zext nneg i32 %48 to i64
  %50 = shl nuw nsw i64 %49, 2
  br i1 %.not9.i9.i, label %53, label %51

51:                                               ; preds = %47
  %52 = tail call ptr @realloc(ptr noundef nonnull %20, i64 noundef %50) #12
  br label %Vec_IntPush.exit.sink.split

53:                                               ; preds = %47
  %54 = tail call noalias ptr @malloc(i64 noundef %50) #13
  br label %Vec_IntPush.exit.sink.split

Vec_IntPush.exit.sink.split:                      ; preds = %51, %53, %43, %45
  %.sink65 = phi ptr [ %44, %43 ], [ %46, %45 ], [ %52, %51 ], [ %54, %53 ]
  %.sink = phi i32 [ 16, %43 ], [ 16, %45 ], [ %48, %51 ], [ %48, %53 ]
  store ptr %.sink65, ptr %11, align 8, !tbaa !21
  store i32 %.sink, ptr %3, align 8, !tbaa !20
  br label %Vec_IntPush.exit

Vec_IntPush.exit:                                 ; preds = %Vec_IntPush.exit.sink.split, %.lr.ph
  %.pre.i59 = phi ptr [ %20, %.lr.ph ], [ %.sink65, %Vec_IntPush.exit.sink.split ]
  %55 = add nsw i32 %37, 1
  store i32 %55, ptr %5, align 4, !tbaa !17
  %56 = sext i32 %37 to i64
  %57 = getelementptr inbounds i32, ptr %.pre.i59, i64 %56
  store i32 %36, ptr %57, align 4, !tbaa !16
  %indvars.iv.next = add nsw i64 %indvars.iv, 1
  %58 = load ptr, ptr %14, align 8, !tbaa !34
  %59 = getelementptr i8, ptr %58, i64 4
  %.val30 = load i32, ptr %59, align 4, !tbaa !35
  %60 = sext i32 %.val30 to i64
  %61 = icmp slt i64 %indvars.iv.next, %60
  br i1 %61, label %.lr.ph, label %.critedge.preheader.loopexit, !llvm.loop !40

.lr.ph53:                                         ; preds = %.critedge.preheader, %Vec_IntPush.exit47
  %62 = phi ptr [ %.pre.i4363, %Vec_IntPush.exit47 ], [ %.pre.i4364, %.critedge.preheader ]
  %indvars.iv55 = phi i64 [ %indvars.iv.next56, %Vec_IntPush.exit47 ], [ 0, %.critedge.preheader ]
  %63 = load ptr, ptr %14, align 8, !tbaa !34
  %64 = getelementptr i8, ptr %63, i64 8
  %.val32 = load ptr, ptr %64, align 8, !tbaa !37
  %65 = getelementptr inbounds nuw ptr, ptr %.val32, i64 %indvars.iv55
  %66 = load ptr, ptr %65, align 8, !tbaa !38
  %67 = getelementptr i8, ptr %66, i64 8
  %.val34 = load ptr, ptr %67, align 8, !tbaa !39
  %68 = ptrtoint ptr %.val34 to i64
  %69 = and i64 %68, -2
  %70 = inttoptr i64 %69 to ptr
  %71 = getelementptr i8, ptr %70, i64 40
  %.val37 = load i32, ptr %71, align 8, !tbaa !3
  %72 = trunc i64 %68 to i32
  %73 = and i32 %72, 1
  %74 = icmp eq i32 %.val37, 0
  %75 = zext i1 %74 to i32
  %76 = xor i32 %73, %75
  %77 = shl i32 %.val37, 1
  %78 = or disjoint i32 %76, %77
  %79 = load i32, ptr %5, align 4, !tbaa !17
  %80 = load i32, ptr %3, align 8, !tbaa !20
  %81 = icmp eq i32 %79, %80
  br i1 %81, label %82, label %Vec_IntPush.exit47

82:                                               ; preds = %.lr.ph53
  %83 = icmp slt i32 %79, 16
  br i1 %83, label %84, label %89

84:                                               ; preds = %82
  %.not9.i.i45 = icmp eq ptr %62, null
  br i1 %.not9.i.i45, label %87, label %85

85:                                               ; preds = %84
  %86 = tail call dereferenceable_or_null(64) ptr @realloc(ptr noundef nonnull %62, i64 noundef 64) #12
  br label %Vec_IntPush.exit47.sink.split

87:                                               ; preds = %84
  %88 = tail call noalias dereferenceable_or_null(64) ptr @malloc(i64 noundef 64) #13
  br label %Vec_IntPush.exit47.sink.split

89:                                               ; preds = %82
  %90 = shl nuw nsw i32 %79, 1
  %.not9.i9.i44 = icmp eq ptr %62, null
  %91 = zext nneg i32 %90 to i64
  %92 = shl nuw nsw i64 %91, 2
  br i1 %.not9.i9.i44, label %95, label %93

93:                                               ; preds = %89
  %94 = tail call ptr @realloc(ptr noundef nonnull %62, i64 noundef %92) #12
  br label %Vec_IntPush.exit47.sink.split

95:                                               ; preds = %89
  %96 = tail call noalias ptr @malloc(i64 noundef %92) #13
  br label %Vec_IntPush.exit47.sink.split

Vec_IntPush.exit47.sink.split:                    ; preds = %93, %95, %85, %87
  %.sink67 = phi ptr [ %86, %85 ], [ %88, %87 ], [ %94, %93 ], [ %96, %95 ]
  %.sink66 = phi i32 [ 16, %85 ], [ 16, %87 ], [ %90, %93 ], [ %90, %95 ]
  store ptr %.sink67, ptr %11, align 8, !tbaa !21
  store i32 %.sink66, ptr %3, align 8, !tbaa !20
  br label %Vec_IntPush.exit47

Vec_IntPush.exit47:                               ; preds = %Vec_IntPush.exit47.sink.split, %.lr.ph53
  %.pre.i4363 = phi ptr [ %62, %.lr.ph53 ], [ %.sink67, %Vec_IntPush.exit47.sink.split ]
  %97 = add nsw i32 %79, 1
  store i32 %97, ptr %5, align 4, !tbaa !17
  %98 = sext i32 %79 to i64
  %99 = getelementptr inbounds i32, ptr %.pre.i4363, i64 %98
  store i32 %78, ptr %99, align 4, !tbaa !16
  %indvars.iv.next56 = add nuw nsw i64 %indvars.iv55, 1
  %.val27 = load i32, ptr %2, align 4, !tbaa !16
  %.val29 = load i32, ptr %12, align 8, !tbaa !22
  %100 = sub nsw i32 %.val27, %.val29
  %101 = sext i32 %100 to i64
  %102 = icmp slt i64 %indvars.iv.next56, %101
  br i1 %102, label %.lr.ph53, label %.critedge2, !llvm.loop !41

.critedge2:                                       ; preds = %Vec_IntPush.exit47, %.critedge.preheader
  ret ptr %3
}